target datalayout = "e-m:e-p270:32:32-p271:32:32-p272:64:64-i64:64-i128:128-f80:128-n8:16:32:64-S128"
target triple = "x86_64-pc-linux-gnu"

%struct.EllipseEquation = type { [7 x double] }
%struct.Circle = type { double, double, double, double, double, ptr, ptr, i32, %struct.EllipseEquation, double, i8, double, double }

; Function Attrs: mustprogress nounwind uwtable
define hidden void @_ZN2cv8ximgproc15EdgeDrawingImpl9addCircleEP6CircleRiddddPdS5_i(ptr noundef %0, ptr noundef nonnull align 4 dereferenceable(4) %1, double noundef %2, double noundef %3, double noundef %4, double noundef %5, ptr noundef %6, ptr noundef %7, i32 noundef %8) #8 align 2 {
  %10 = alloca ptr, align 8
  %11 = alloca ptr, align 8
  %12 = alloca double, align 8
  %13 = alloca double, align 8
  %14 = alloca double, align 8
  %15 = alloca double, align 8
  %16 = alloca ptr, align 8
  %17 = alloca ptr, align 8
  %18 = alloca i32, align 4
  store ptr %0, ptr %10, align 8, !tbaa !412
  store ptr %1, ptr %11, align 8, !tbaa !131
  store double %2, ptr %12, align 8, !tbaa !10
  store double %3, ptr %13, align 8, !tbaa !10
  store double %4, ptr %14, align 8, !tbaa !10
  store double %5, ptr %15, align 8, !tbaa !10
  store ptr %6, ptr %16, align 8, !tbaa !42
  store ptr %7, ptr %17, align 8, !tbaa !42
  store i32 %8, ptr %18, align 4, !tbaa !8
  %19 = load double, ptr %12, align 8, !tbaa !10
  %20 = load ptr, ptr %10, align 8, !tbaa !412
  %21 = load ptr, ptr %11, align 8, !tbaa !131
  %22 = load i32, ptr %21, align 4, !tbaa !8
  %23 = sext i32 %22 to i64
  %24 = getelementptr inbounds %struct.Circle, ptr %20, i64 %23
  %25 = getelementptr inbounds nuw %struct.Circle, ptr %24, i32 0, i32 0
  store double %19, ptr %25, align 8, !tbaa !407
  %26 = load double, ptr %13, align 8, !tbaa !10
  %27 = load ptr, ptr %10, align 8, !tbaa !412
  %28 = load ptr, ptr %11, align 8, !tbaa !131
  %29 = load i32, ptr %28, align 4, !tbaa !8
  %30 = sext i32 %29 to i64
  %31 = getelementptr inbounds %struct.Circle, ptr %27, i64 %30
  %32 = getelementptr inbounds nuw %struct.Circle, ptr %31, i32 0, i32 1
  store double %26, ptr %32, align 8, !tbaa !408
  %33 = load double, ptr %14, align 8, !tbaa !10
  %34 = load ptr, ptr %10, align 8, !tbaa !412
  %35 = load ptr, ptr %11, align 8, !tbaa !131
  %36 = load i32, ptr %35, align 4, !tbaa !8
  %37 = sext i32 %36 to i64
  %38 = getelementptr inbounds %struct.Circle, ptr %34, i64 %37
  %39 = getelementptr inbounds nuw %struct.Circle, ptr %38, i32 0, i32 2
  store double %33, ptr %39, align 8, !tbaa !406
  %40 = load double, ptr %15, align 8, !tbaa !10
  %41 = load ptr, ptr %10, align 8, !tbaa !412
  %42 = load ptr, ptr %11, align 8, !tbaa !131
  %43 = load i32, ptr %42, align 4, !tbaa !8
  %44 = sext i32 %43 to i64
  %45 = getelementptr inbounds %struct.Circle, ptr %41, i64 %44
  %46 = getelementptr inbounds nuw %struct.Circle, ptr %45, i32 0, i32 3
  store double %40, ptr %46, align 8, !tbaa !437
  %47 = load i32, ptr %18, align 4, !tbaa !8
  %48 = sitofp i32 %47 to double
  %49 = fdiv double %48, 0x401921FB54442D18
  %50 = load double, ptr %14, align 8, !tbaa !10
  %51 = fmul double %49, %50
  %52 = load ptr, ptr %10, align 8, !tbaa !412
  %53 = load ptr, ptr %11, align 8, !tbaa !131
  %54 = load i32, ptr %53, align 4, !tbaa !8
  %55 = sext i32 %54 to i64
  %56 = getelementptr inbounds %struct.Circle, ptr %52, i64 %55
  %57 = getelementptr inbounds nuw %struct.Circle, ptr %56, i32 0, i32 4
  store double %51, ptr %57, align 8, !tbaa !438
  %58 = load ptr, ptr %16, align 8, !tbaa !42
  %59 = load ptr, ptr %10, align 8, !tbaa !412
  %60 = load ptr, ptr %11, align 8, !tbaa !131
  %61 = load i32, ptr %60, align 4, !tbaa !8
  %62 = sext i32 %61 to i64
  %63 = getelementptr inbounds %struct.Circle, ptr %59, i64 %62
  %64 = getelementptr inbounds nuw %struct.Circle, ptr %63, i32 0, i32 5
  store ptr %58, ptr %64, align 8, !tbaa !439
  %65 = load ptr, ptr %17, align 8, !tbaa !42
  %66 = load ptr, ptr %10, align 8, !tbaa !412
  %67 = load ptr, ptr %11, align 8, !tbaa !131
  %68 = load i32, ptr %67, align 4, !tbaa !8
  %69 = sext i32 %68 to i64
  %70 = getelementptr inbounds %struct.Circle, ptr %66, i64 %69
  %71 = getelementptr inbounds nuw %struct.Circle, ptr %70, i32 0, i32 6
  store ptr %65, ptr %71, align 8, !tbaa !440
  %72 = load i32, ptr %18, align 4, !tbaa !8
  %73 = load ptr, ptr %10, align 8, !tbaa !412
  %74 = load ptr, ptr %11, align 8, !tbaa !131
  %75 = load i32, ptr %74, align 4, !tbaa !8
  %76 = sext i32 %75 to i64
  %77 = getelementptr inbounds %struct.Circle, ptr %73, i64 %76
  %78 = getelementptr inbounds nuw %struct.Circle, ptr %77, i32 0, i32 7
  store i32 %72, ptr %78, align 8, !tbaa !441
  %79 = load ptr, ptr %10, align 8, !tbaa !412
  %80 = load ptr, ptr %11, align 8, !tbaa !131
  %81 = load i32, ptr %80, align 4, !tbaa !8
  %82 = sext i32 %81 to i64
  %83 = getelementptr inbounds %struct.Circle, ptr %79, i64 %82
  %84 = getelementptr inbounds nuw %struct.Circle, ptr %83, i32 0, i32 10
  store i8 0, ptr %84, align 8, !tbaa !401
  %85 = load ptr, ptr %11, align 8, !tbaa !131
  %86 = load i32, ptr %85, align 4, !tbaa !8
  %87 = add nsw i32 %86, 1
  store i32 %87, ptr %85, align 4, !tbaa !8
  ret void
}