; Function Attrs: mustprogress nofree norecurse nosync nounwind willreturn memory(argmem: readwrite) uwtable
define hidden void @_ZN2cv8ximgproc15EdgeDrawingImpl9addCircleEP6CircleRiddddPdS5_i(ptr noundef writeonly captures(none) %0, ptr noundef nonnull align 4 captures(none) dereferenceable(4) %1, double noundef %2, double noundef %3, double noundef %4, double noundef %5, ptr noundef %6, ptr noundef %7, i32 noundef %8) local_unnamed_addr #16 align 2 {
  %10 = load i32, ptr %1, align 4, !tbaa !15
  %11 = sext i32 %10 to i64
  %12 = getelementptr inbounds %struct.Circle, ptr %0, i64 %11
  store double %2, ptr %12, align 8, !tbaa !366
  %13 = getelementptr inbounds %struct.Circle, ptr %0, i64 %11, i32 1
  store double %3, ptr %13, align 8, !tbaa !369
  %14 = getelementptr inbounds %struct.Circle, ptr %0, i64 %11, i32 2
  store double %4, ptr %14, align 8, !tbaa !370
  %15 = getelementptr inbounds %struct.Circle, ptr %0, i64 %11, i32 3
  store double %5, ptr %15, align 8, !tbaa !371
  %16 = sitofp i32 %8 to double
  %17 = fdiv double %16, 0x401921FB54442D18
  %18 = fmul double %4, %17
  %19 = getelementptr inbounds %struct.Circle, ptr %0, i64 %11, i32 4
  store double %18, ptr %19, align 8, !tbaa !372
  %20 = getelementptr inbounds %struct.Circle, ptr %0, i64 %11, i32 5
  store ptr %6, ptr %20, align 8, !tbaa !373
  %21 = getelementptr inbounds %struct.Circle, ptr %0, i64 %11, i32 6
  store ptr %7, ptr %21, align 8, !tbaa !374
  %22 = getelementptr inbounds %struct.Circle, ptr %0, i64 %11, i32 7
  store i32 %8, ptr %22, align 8, !tbaa !375
  %23 = load i32, ptr %1, align 4, !tbaa !15
  %24 = sext i32 %23 to i64
  %25 = getelementptr inbounds %struct.Circle, ptr %0, i64 %24, i32 10
  store i8 0, ptr %25, align 8, !tbaa !376
  %26 = add nsw i32 %23, 1
  store i32 %26, ptr %1, align 4, !tbaa !15
  ret void
}